; Function Attrs: nounwind sspstrong uwtable
define internal noundef i32 @fstring_set_class_i(i64 noundef %0, i64 %1, i64 noundef %2) #1 {
  %4 = inttoptr i64 %0 to ptr
  %5 = getelementptr inbounds nuw i8, ptr %4, i64 8
  store i64 %2, ptr %5, align 8, !tbaa !26
  %6 = icmp eq i64 %2, 0
  %7 = and i64 %2, 7
  %8 = icmp ne i64 %7, 0
  %9 = or i1 %6, %8
  br i1 %9, label %RBASIC_SET_CLASS.exit, label %10

10:                                               ; preds = %3
  tail call void @rb_gc_writebarrier(i64 noundef %0, i64 noundef %2) #29
  br label %RBASIC_SET_CLASS.exit

RBASIC_SET_CLASS.exit:                            ; preds = %3, %10
  ret i32 0
}